target datalayout = "e-m:e-p270:32:32-p271:32:32-p272:64:64-i64:64-i128:128-f80:128-n8:16:32:64-S128"
target triple = "x86_64-pc-linux-gnu"

@e = internal global ptr null, align 8
@.str.1 = private unnamed_addr constant [28 x i8] c"../openssl/test/afalgtest.c\00", align 1
@.str.19 = private unnamed_addr constant [15 x i8] c"ENGINE_init(e)\00", align 1
@.str.20 = private unnamed_addr constant [4 x i8] c"ret\00", align 1

; Function Attrs: nounwind uwtable
define internal i32 @test_pr16743() #0 {
  %1 = alloca i32, align 4
  %2 = alloca i32, align 4
  %3 = alloca ptr, align 8
  %4 = alloca ptr, align 8
  %5 = alloca i32, align 4
  call void @llvm.lifetime.start.p0(i64 4, ptr %2) #3
  store i32 0, ptr %2, align 4, !tbaa !9
  call void @llvm.lifetime.start.p0(i64 8, ptr %3) #3
  call void @llvm.lifetime.start.p0(i64 8, ptr %4) #3
  %6 = load ptr, ptr @e, align 8, !tbaa !4
  %7 = call i32 @ENGINE_init(ptr noundef %6)
  %8 = icmp ne i32 %7, 0
  %9 = zext i1 %8 to i32
  %10 = call i32 @test_true(ptr noundef @.str.1, i32 noundef 118, ptr noundef @.str.19, i32 noundef %9)
  %11 = icmp ne i32 %10, 0
  br i1 %11, label %13, label %12

12:                                               ; preds = %0
  store i32 0, ptr %1, align 4
  store i32 1, ptr %5, align 4
  br label %36

13:                                               ; preds = %0
  %14 = load ptr, ptr @e, align 8, !tbaa !4
  %15 = call ptr @ENGINE_get_cipher(ptr noundef %14, i32 noundef 419)
  store ptr %15, ptr %3, align 8, !tbaa !13
  %16 = call ptr @EVP_CIPHER_CTX_new()
  store ptr %16, ptr %4, align 8, !tbaa !15
  %17 = load ptr, ptr %3, align 8, !tbaa !13
  %18 = icmp ne ptr %17, null
  br i1 %18, label %19, label %27

19:                                               ; preds = %13
  %20 = load ptr, ptr %4, align 8, !tbaa !15
  %21 = icmp ne ptr %20, null
  br i1 %21, label %22, label %27

22:                                               ; preds = %19
  %23 = load ptr, ptr %4, align 8, !tbaa !15
  %24 = load ptr, ptr %3, align 8, !tbaa !13
  %25 = load ptr, ptr @e, align 8, !tbaa !4
  %26 = call i32 @EVP_EncryptInit_ex(ptr noundef %23, ptr noundef %24, ptr noundef %25, ptr noundef null, ptr noundef null)
  store i32 %26, ptr %2, align 4, !tbaa !9
  br label %27

27:                                               ; preds = %22, %19, %13
  %28 = load i32, ptr %2, align 4, !tbaa !9
  %29 = icmp ne i32 %28, 0
  %30 = zext i1 %29 to i32
  %31 = call i32 @test_true(ptr noundef @.str.1, i32 noundef 124, ptr noundef @.str.20, i32 noundef %30)
  %32 = load ptr, ptr %4, align 8, !tbaa !15
  call void @EVP_CIPHER_CTX_free(ptr noundef %32)
  %33 = load ptr, ptr @e, align 8, !tbaa !4
  %34 = call i32 @ENGINE_finish(ptr noundef %33)
  %35 = load i32, ptr %2, align 4, !tbaa !9
  store i32 %35, ptr %1, align 4
  store i32 1, ptr %5, align 4
  br label %36

36:                                               ; preds = %27, %12
  call void @llvm.lifetime.end.p0(i64 8, ptr %4) #3
  call void @llvm.lifetime.end.p0(i64 8, ptr %3) #3
  call void @llvm.lifetime.end.p0(i64 4, ptr %2) #3
  %37 = load i32, ptr %1, align 4
  ret i32 %37
}