; Function Attrs: nounwind uwtable
define internal i32 @test_pr16743() #0 {
  %1 = load ptr, ptr @e, align 8, !tbaa !4
  %2 = tail call i32 @ENGINE_init(ptr noundef %1) #3
  %3 = icmp ne i32 %2, 0
  %4 = zext i1 %3 to i32
  %5 = tail call i32 @test_true(ptr noundef nonnull @.str.1, i32 noundef 118, ptr noundef nonnull @.str.19, i32 noundef %4) #3
  %.not = icmp eq i32 %5, 0
  br i1 %.not, label %21, label %6

6:                                                ; preds = %0
  %7 = load ptr, ptr @e, align 8, !tbaa !4
  %8 = tail call ptr @ENGINE_get_cipher(ptr noundef %7, i32 noundef 419) #3
  %9 = tail call ptr @EVP_CIPHER_CTX_new() #3
  %10 = icmp ne ptr %8, null
  %11 = icmp ne ptr %9, null
  %or.cond = select i1 %10, i1 %11, i1 false
  br i1 %or.cond, label %12, label %15

12:                                               ; preds = %6
  %13 = load ptr, ptr @e, align 8, !tbaa !4
  %14 = tail call i32 @EVP_EncryptInit_ex(ptr noundef nonnull %9, ptr noundef nonnull %8, ptr noundef %13, ptr noundef null, ptr noundef null) #3
  br label %15

15:                                               ; preds = %12, %6
  %.08 = phi i32 [ %14, %12 ], [ 0, %6 ]
  %16 = icmp ne i32 %.08, 0
  %17 = zext i1 %16 to i32
  %18 = tail call i32 @test_true(ptr noundef nonnull @.str.1, i32 noundef 124, ptr noundef nonnull @.str.20, i32 noundef %17) #3
  tail call void @EVP_CIPHER_CTX_free(ptr noundef %9) #3
  %19 = load ptr, ptr @e, align 8, !tbaa !4
  %20 = tail call i32 @ENGINE_finish(ptr noundef %19) #3
  br label %21

21:                                               ; preds = %0, %15
  %.0 = phi i32 [ %.08, %15 ], [ 0, %0 ]
  ret i32 %.0
}